target datalayout = "e-m:e-p270:32:32-p271:32:32-p272:64:64-i64:64-i128:128-f80:128-n8:16:32:64-S128"
target triple = "x86_64-pc-linux-gnu"

%struct.__loadu_si128 = type { <2 x i64> }
%struct.__storeu_si128 = type { <2 x i64> }

@VP8FTransform = external global ptr, align 8
@VP8DspScan = external constant [24 x i32], align 16

; Function Attrs: alwaysinline nounwind uwtable
define internal <2 x i64> @_mm_set_epi16(i16 noundef signext %0, i16 noundef signext %1, i16 noundef signext %2, i16 noundef signext %3, i16 noundef signext %4, i16 noundef signext %5, i16 noundef signext %6, i16 noundef signext %7) #3 {
  %9 = alloca i16, align 2
  %10 = alloca i16, align 2
  %11 = alloca i16, align 2
  %12 = alloca i16, align 2
  %13 = alloca i16, align 2
  %14 = alloca i16, align 2
  %15 = alloca i16, align 2
  %16 = alloca i16, align 2
  %17 = alloca <8 x i16>, align 16
  store i16 %0, ptr %9, align 2, !tbaa !12
  store i16 %1, ptr %10, align 2, !tbaa !12
  store i16 %2, ptr %11, align 2, !tbaa !12
  store i16 %3, ptr %12, align 2, !tbaa !12
  store i16 %4, ptr %13, align 2, !tbaa !12
  store i16 %5, ptr %14, align 2, !tbaa !12
  store i16 %6, ptr %15, align 2, !tbaa !12
  store i16 %7, ptr %16, align 2, !tbaa !12
  %18 = load i16, ptr %16, align 2, !tbaa !12
  %19 = insertelement <8 x i16> poison, i16 %18, i32 0
  %20 = load i16, ptr %15, align 2, !tbaa !12
  %21 = insertelement <8 x i16> %19, i16 %20, i32 1
  %22 = load i16, ptr %14, align 2, !tbaa !12
  %23 = insertelement <8 x i16> %21, i16 %22, i32 2
  %24 = load i16, ptr %13, align 2, !tbaa !12
  %25 = insertelement <8 x i16> %23, i16 %24, i32 3
  %26 = load i16, ptr %12, align 2, !tbaa !12
  %27 = insertelement <8 x i16> %25, i16 %26, i32 4
  %28 = load i16, ptr %11, align 2, !tbaa !12
  %29 = insertelement <8 x i16> %27, i16 %28, i32 5
  %30 = load i16, ptr %10, align 2, !tbaa !12
  %31 = insertelement <8 x i16> %29, i16 %30, i32 6
  %32 = load i16, ptr %9, align 2, !tbaa !12
  %33 = insertelement <8 x i16> %31, i16 %32, i32 7
  store <8 x i16> %33, ptr %17, align 16, !tbaa !11
  %34 = load <8 x i16>, ptr %17, align 16, !tbaa !11
  %35 = bitcast <8 x i16> %34 to <2 x i64>
  ret <2 x i64> %35
}

; Function Attrs: alwaysinline nounwind uwtable
define internal void @_mm_storeu_si128(ptr noundef %0, <2 x i64> noundef %1) #3 {
  %3 = alloca ptr, align 8
  %4 = alloca <2 x i64>, align 16
  store ptr %0, ptr %3, align 8, !tbaa !3
  store <2 x i64> %1, ptr %4, align 16, !tbaa !11
  %5 = load <2 x i64>, ptr %4, align 16, !tbaa !11
  %6 = load ptr, ptr %3, align 8, !tbaa !3
  %7 = getelementptr inbounds nuw %struct.__storeu_si128, ptr %6, i32 0, i32 0
  store <2 x i64> %5, ptr %7, align 1, !tbaa !11
  ret void
}

; Function Attrs: alwaysinline nounwind uwtable
define internal <2 x i64> @_mm_min_epi16(<2 x i64> noundef %0, <2 x i64> noundef %1) #3 {
  %3 = alloca <2 x i64>, align 16
  %4 = alloca <2 x i64>, align 16
  store <2 x i64> %0, ptr %3, align 16, !tbaa !11
  store <2 x i64> %1, ptr %4, align 16, !tbaa !11
  %5 = load <2 x i64>, ptr %3, align 16, !tbaa !11
  %6 = bitcast <2 x i64> %5 to <8 x i16>
  %7 = load <2 x i64>, ptr %4, align 16, !tbaa !11
  %8 = bitcast <2 x i64> %7 to <8 x i16>
  %9 = call <8 x i16> @llvm.smin.v8i16(<8 x i16> %6, <8 x i16> %8)
  %10 = bitcast <8 x i16> %9 to <2 x i64>
  ret <2 x i64> %10
}

; Function Attrs: alwaysinline nounwind uwtable
define internal <2 x i64> @_mm_srai_epi16(<2 x i64> noundef %0, i32 noundef %1) #3 {
  %3 = alloca <2 x i64>, align 16
  %4 = alloca i32, align 4
  store <2 x i64> %0, ptr %3, align 16, !tbaa !11
  store i32 %1, ptr %4, align 4, !tbaa !9
  %5 = load <2 x i64>, ptr %3, align 16, !tbaa !11
  %6 = bitcast <2 x i64> %5 to <8 x i16>
  %7 = load i32, ptr %4, align 4, !tbaa !9
  %8 = call <8 x i16> @llvm.x86.sse2.psrai.w(<8 x i16> %6, i32 %7)
  %9 = bitcast <8 x i16> %8 to <2 x i64>
  ret <2 x i64> %9
}

; Function Attrs: alwaysinline nounwind uwtable
define internal <2 x i64> @_mm_abs_epi16(<2 x i64> noundef %0) #3 {
  %2 = alloca <2 x i64>, align 16
  store <2 x i64> %0, ptr %2, align 16, !tbaa !11
  %3 = load <2 x i64>, ptr %2, align 16, !tbaa !11
  %4 = bitcast <2 x i64> %3 to <8 x i16>
  %5 = call <8 x i16> @llvm.abs.v8i16(<8 x i16> %4, i1 false)
  %6 = bitcast <8 x i16> %5 to <2 x i64>
  ret <2 x i64> %6
}

; Function Attrs: alwaysinline nounwind uwtable
define internal <2 x i64> @_mm_loadu_si128(ptr noundef %0) #3 {
  %2 = alloca ptr, align 8
  store ptr %0, ptr %2, align 8, !tbaa !3
  %3 = load ptr, ptr %2, align 8, !tbaa !3
  %4 = getelementptr inbounds nuw %struct.__loadu_si128, ptr %3, i32 0, i32 0
  %5 = load <2 x i64>, ptr %4, align 1, !tbaa !11
  ret <2 x i64> %5
}

; Function Attrs: alwaysinline nounwind uwtable
define internal <2 x i64> @_mm_set1_epi16(i16 noundef signext %0) #3 {
  %2 = alloca i16, align 2
  store i16 %0, ptr %2, align 2, !tbaa !12
  %3 = load i16, ptr %2, align 2, !tbaa !12
  %4 = load i16, ptr %2, align 2, !tbaa !12
  %5 = load i16, ptr %2, align 2, !tbaa !12
  %6 = load i16, ptr %2, align 2, !tbaa !12
  %7 = load i16, ptr %2, align 2, !tbaa !12
  %8 = load i16, ptr %2, align 2, !tbaa !12
  %9 = load i16, ptr %2, align 2, !tbaa !12
  %10 = load i16, ptr %2, align 2, !tbaa !12
  %11 = call <2 x i64> @_mm_set_epi16(i16 noundef signext %3, i16 noundef signext %4, i16 noundef signext %5, i16 noundef signext %6, i16 noundef signext %7, i16 noundef signext %8, i16 noundef signext %9, i16 noundef signext %10)
  ret <2 x i64> %11
}

; Function Attrs: nounwind uwtable
define internal void @CollectHistogram_SSE41(ptr noalias noundef %0, ptr noalias noundef %1, i32 noundef %2, i32 noundef %3, ptr noalias noundef %4) #1 {
  %6 = alloca ptr, align 8
  %7 = alloca ptr, align 8
  %8 = alloca i32, align 4
  %9 = alloca i32, align 4
  %10 = alloca ptr, align 8
  %11 = alloca <2 x i64>, align 16
  %12 = alloca i32, align 4
  %13 = alloca [32 x i32], align 16
  %14 = alloca [16 x i16], align 16
  %15 = alloca i32, align 4
  %16 = alloca <2 x i64>, align 16
  %17 = alloca <2 x i64>, align 16
  %18 = alloca <2 x i64>, align 16
  %19 = alloca <2 x i64>, align 16
  %20 = alloca <2 x i64>, align 16
  %21 = alloca <2 x i64>, align 16
  %22 = alloca <2 x i64>, align 16
  %23 = alloca <2 x i64>, align 16
  store ptr %0, ptr %6, align 8, !tbaa !7
  store ptr %1, ptr %7, align 8, !tbaa !7
  store i32 %2, ptr %8, align 4, !tbaa !9
  store i32 %3, ptr %9, align 4, !tbaa !9
  store ptr %4, ptr %10, align 8, !tbaa !3
  call void @llvm.lifetime.start.p0(i64 16, ptr %11) #9
  %24 = call <2 x i64> @_mm_set1_epi16(i16 noundef signext 31)
  store <2 x i64> %24, ptr %11, align 16, !tbaa !11
  call void @llvm.lifetime.start.p0(i64 4, ptr %12) #9
  call void @llvm.lifetime.start.p0(i64 128, ptr %13) #9
  call void @llvm.memset.p0.i64(ptr align 16 %13, i8 0, i64 128, i1 false)
  %25 = load i32, ptr %8, align 4, !tbaa !9
  store i32 %25, ptr %12, align 4, !tbaa !9
  br label %26

26:                                               ; preds = %85, %5
  %27 = load i32, ptr %12, align 4, !tbaa !9
  %28 = load i32, ptr %9, align 4, !tbaa !9
  %29 = icmp slt i32 %27, %28
  br i1 %29, label %30, label %88

30:                                               ; preds = %26
  call void @llvm.lifetime.start.p0(i64 32, ptr %14) #9
  call void @llvm.lifetime.start.p0(i64 4, ptr %15) #9
  %31 = load ptr, ptr @VP8FTransform, align 8, !tbaa !3
  %32 = load ptr, ptr %6, align 8, !tbaa !7
  %33 = load i32, ptr %12, align 4, !tbaa !9
  %34 = sext i32 %33 to i64
  %35 = getelementptr inbounds [24 x i32], ptr @VP8DspScan, i64 0, i64 %34
  %36 = load i32, ptr %35, align 4, !tbaa !9
  %37 = sext i32 %36 to i64
  %38 = getelementptr inbounds i8, ptr %32, i64 %37
  %39 = load ptr, ptr %7, align 8, !tbaa !7
  %40 = load i32, ptr %12, align 4, !tbaa !9
  %41 = sext i32 %40 to i64
  %42 = getelementptr inbounds [24 x i32], ptr @VP8DspScan, i64 0, i64 %41
  %43 = load i32, ptr %42, align 4, !tbaa !9
  %44 = sext i32 %43 to i64
  %45 = getelementptr inbounds i8, ptr %39, i64 %44
  %46 = getelementptr inbounds [16 x i16], ptr %14, i64 0, i64 0
  call void %31(ptr noundef %38, ptr noundef %45, ptr noundef %46)
  call void @llvm.lifetime.start.p0(i64 16, ptr %16) #9
  %47 = getelementptr inbounds [16 x i16], ptr %14, i64 0, i64 0
  %48 = call <2 x i64> @_mm_loadu_si128(ptr noundef %47)
  store <2 x i64> %48, ptr %16, align 16, !tbaa !11
  call void @llvm.lifetime.start.p0(i64 16, ptr %17) #9
  %49 = getelementptr inbounds [16 x i16], ptr %14, i64 0, i64 8
  %50 = call <2 x i64> @_mm_loadu_si128(ptr noundef %49)
  store <2 x i64> %50, ptr %17, align 16, !tbaa !11
  call void @llvm.lifetime.start.p0(i64 16, ptr %18) #9
  %51 = load <2 x i64>, ptr %16, align 16, !tbaa !11
  %52 = call <2 x i64> @_mm_abs_epi16(<2 x i64> noundef %51)
  store <2 x i64> %52, ptr %18, align 16, !tbaa !11
  call void @llvm.lifetime.start.p0(i64 16, ptr %19) #9
  %53 = load <2 x i64>, ptr %17, align 16, !tbaa !11
  %54 = call <2 x i64> @_mm_abs_epi16(<2 x i64> noundef %53)
  store <2 x i64> %54, ptr %19, align 16, !tbaa !11
  call void @llvm.lifetime.start.p0(i64 16, ptr %20) #9
  %55 = load <2 x i64>, ptr %18, align 16, !tbaa !11
  %56 = call <2 x i64> @_mm_srai_epi16(<2 x i64> noundef %55, i32 noundef 3)
  store <2 x i64> %56, ptr %20, align 16, !tbaa !11
  call void @llvm.lifetime.start.p0(i64 16, ptr %21) #9
  %57 = load <2 x i64>, ptr %19, align 16, !tbaa !11
  %58 = call <2 x i64> @_mm_srai_epi16(<2 x i64> noundef %57, i32 noundef 3)
  store <2 x i64> %58, ptr %21, align 16, !tbaa !11
  call void @llvm.lifetime.start.p0(i64 16, ptr %22) #9
  %59 = load <2 x i64>, ptr %20, align 16, !tbaa !11
  %60 = load <2 x i64>, ptr %11, align 16, !tbaa !11
  %61 = call <2 x i64> @_mm_min_epi16(<2 x i64> noundef %59, <2 x i64> noundef %60)
  store <2 x i64> %61, ptr %22, align 16, !tbaa !11
  call void @llvm.lifetime.start.p0(i64 16, ptr %23) #9
  %62 = load <2 x i64>, ptr %21, align 16, !tbaa !11
  %63 = load <2 x i64>, ptr %11, align 16, !tbaa !11
  %64 = call <2 x i64> @_mm_min_epi16(<2 x i64> noundef %62, <2 x i64> noundef %63)
  store <2 x i64> %64, ptr %23, align 16, !tbaa !11
  %65 = getelementptr inbounds [16 x i16], ptr %14, i64 0, i64 0
  %66 = load <2 x i64>, ptr %22, align 16, !tbaa !11
  call void @_mm_storeu_si128(ptr noundef %65, <2 x i64> noundef %66)
  %67 = getelementptr inbounds [16 x i16], ptr %14, i64 0, i64 8
  %68 = load <2 x i64>, ptr %23, align 16, !tbaa !11
  call void @_mm_storeu_si128(ptr noundef %67, <2 x i64> noundef %68)
  call void @llvm.lifetime.end.p0(i64 16, ptr %23) #9
  call void @llvm.lifetime.end.p0(i64 16, ptr %22) #9
  call void @llvm.lifetime.end.p0(i64 16, ptr %21) #9
  call void @llvm.lifetime.end.p0(i64 16, ptr %20) #9
  call void @llvm.lifetime.end.p0(i64 16, ptr %19) #9
  call void @llvm.lifetime.end.p0(i64 16, ptr %18) #9
  call void @llvm.lifetime.end.p0(i64 16, ptr %17) #9
  call void @llvm.lifetime.end.p0(i64 16, ptr %16) #9
  store i32 0, ptr %15, align 4, !tbaa !9
  br label %69

69:                                               ; preds = %81, %30
  %70 = load i32, ptr %15, align 4, !tbaa !9
  %71 = icmp slt i32 %70, 16
  br i1 %71, label %72, label %84

72:                                               ; preds = %69
  %73 = load i32, ptr %15, align 4, !tbaa !9
  %74 = sext i32 %73 to i64
  %75 = getelementptr inbounds [16 x i16], ptr %14, i64 0, i64 %74
  %76 = load i16, ptr %75, align 2, !tbaa !12
  %77 = sext i16 %76 to i64
  %78 = getelementptr inbounds [32 x i32], ptr %13, i64 0, i64 %77
  %79 = load i32, ptr %78, align 4, !tbaa !9
  %80 = add nsw i32 %79, 1
  store i32 %80, ptr %78, align 4, !tbaa !9
  br label %81

81:                                               ; preds = %72
  %82 = load i32, ptr %15, align 4, !tbaa !9
  %83 = add nsw i32 %82, 1
  store i32 %83, ptr %15, align 4, !tbaa !9
  br label %69, !llvm.loop !14

84:                                               ; preds = %69
  call void @llvm.lifetime.end.p0(i64 4, ptr %15) #9
  call void @llvm.lifetime.end.p0(i64 32, ptr %14) #9
  br label %85

85:                                               ; preds = %84
  %86 = load i32, ptr %12, align 4, !tbaa !9
  %87 = add nsw i32 %86, 1
  store i32 %87, ptr %12, align 4, !tbaa !9
  br label %26, !llvm.loop !16

88:                                               ; preds = %26
  %89 = getelementptr inbounds [32 x i32], ptr %13, i64 0, i64 0
  %90 = load ptr, ptr %10, align 8, !tbaa !3
  call void @VP8SetHistogramData(ptr noundef %89, ptr noundef %90)
  call void @llvm.lifetime.end.p0(i64 128, ptr %13) #9
  call void @llvm.lifetime.end.p0(i64 4, ptr %12) #9
  call void @llvm.lifetime.end.p0(i64 16, ptr %11) #9
  ret void
}