; Function Attrs: nounwind uwtable
define internal void @CollectHistogram_SSE41(ptr noalias noundef %0, ptr noalias noundef %1, i32 noundef %2, i32 noundef %3, ptr noalias noundef %4) #1 {
  %6 = alloca [32 x i32], align 16
  %7 = alloca [16 x i16], align 16
  call void @llvm.lifetime.start.p0(i64 128, ptr nonnull %6) #11
  call void @llvm.memset.p0.i64(ptr noundef nonnull align 16 dereferenceable(128) %6, i8 0, i64 128, i1 false)
  %8 = icmp slt i32 %2, %3
  br i1 %8, label %.lr.ph, label %._crit_edge

.lr.ph:                                           ; preds = %5
  %9 = getelementptr inbounds nuw i8, ptr %7, i64 16
  %10 = sext i32 %2 to i64
  %wide.trip.count = sext i32 %3 to i64
  br label %11

11:                                               ; preds = %.lr.ph, %33
  %indvars.iv25 = phi i64 [ %10, %.lr.ph ], [ %indvars.iv.next26, %33 ]
  call void @llvm.lifetime.start.p0(i64 32, ptr nonnull %7) #11
  %12 = load ptr, ptr @VP8FTransform, align 8, !tbaa !3
  %13 = getelementptr inbounds [24 x i32], ptr @VP8DspScan, i64 0, i64 %indvars.iv25
  %14 = load i32, ptr %13, align 4, !tbaa !7
  %15 = sext i32 %14 to i64
  %16 = getelementptr inbounds i8, ptr %0, i64 %15
  %17 = getelementptr inbounds i8, ptr %1, i64 %15
  call void %12(ptr noundef %16, ptr noundef %17, ptr noundef nonnull %7) #11
  %18 = load <8 x i16>, ptr %7, align 16, !tbaa !9
  %19 = load <8 x i16>, ptr %9, align 16, !tbaa !9
  %20 = call <8 x i16> @llvm.abs.v8i16(<8 x i16> %18, i1 false)
  %21 = call <8 x i16> @llvm.abs.v8i16(<8 x i16> %19, i1 false)
  %22 = ashr <8 x i16> %20, splat (i16 3)
  %23 = ashr <8 x i16> %21, splat (i16 3)
  %24 = call <8 x i16> @llvm.smin.v8i16(<8 x i16> %22, <8 x i16> splat (i16 31))
  %25 = call <8 x i16> @llvm.smin.v8i16(<8 x i16> %23, <8 x i16> splat (i16 31))
  store <8 x i16> %24, ptr %7, align 16, !tbaa !9
  store <8 x i16> %25, ptr %9, align 16, !tbaa !9
  br label %26

26:                                               ; preds = %11, %26
  %indvars.iv = phi i64 [ 0, %11 ], [ %indvars.iv.next, %26 ]
  %27 = getelementptr inbounds nuw [16 x i16], ptr %7, i64 0, i64 %indvars.iv
  %28 = load i16, ptr %27, align 2, !tbaa !10
  %29 = sext i16 %28 to i64
  %30 = getelementptr inbounds [32 x i32], ptr %6, i64 0, i64 %29
  %31 = load i32, ptr %30, align 4, !tbaa !7
  %32 = add nsw i32 %31, 1
  store i32 %32, ptr %30, align 4, !tbaa !7
  %indvars.iv.next = add nuw nsw i64 %indvars.iv, 1
  %exitcond.not = icmp eq i64 %indvars.iv.next, 16
  br i1 %exitcond.not, label %33, label %26, !llvm.loop !12

33:                                               ; preds = %26
  call void @llvm.lifetime.end.p0(i64 32, ptr nonnull %7) #11
  %indvars.iv.next26 = add nsw i64 %indvars.iv25, 1
  %exitcond28.not = icmp eq i64 %indvars.iv.next26, %wide.trip.count
  br i1 %exitcond28.not, label %._crit_edge, label %11, !llvm.loop !14

._crit_edge:                                      ; preds = %33, %5
  call void @VP8SetHistogramData(ptr noundef nonnull %6, ptr noundef %4) #11
  call void @llvm.lifetime.end.p0(i64 128, ptr nonnull %6) #11
  ret void
}